Certificate:
    Data:
        Version: 3 (0x2)
        Serial Number: 1 (0x1)
    Signature Algorithm: sha256WithRSAEncryption
        Issuer: C=US, ST=Unset, L=Unset, O=Unset, CN=www.example.com
        Validity
            Not Before: Jul 27 09:13:15 2016 GMT
            Not After : Jul 25 09:13:15 2026 GMT
        Subject: C=US, ST=Unset, O=Unset, CN=www.example.com
        Subject Public Key Info:
            Public Key Algorithm: rsaEncryption
                Public-Key: (2048 bit)
                Modulus:
                    00:bb:dd:fe:68:72:9e:7f:ef:19:a1:60:9c:31:31:
                    76:b9:25:6c:23:02:08:b4:9f:a8:bd:75:2a:a2:91:
                    c1:4e:82:5a:83:0c:76:a3:99:43:47:17:1a:76:15:
                    85:0d:d8:22:3b:66:42:2f:c3:5d:4c:2d:ec:6d:aa:
                    f7:1a:81:50:8e:6e:1e:2a:54:a3:78:d5:a2:3c:61:
                    a2:2e:b3:f7:e9:de:2a:57:87:79:07:95:8c:8c:1e:
                    5b:e9:03:60:4a:47:f0:35:7b:3a:f2:17:47:9c:1a:
                    35:b2:07:97:49:2e:97:21:80:7a:23:42:17:f4:2b:
                    1d:83:8c:d5:0f:21:cc:57:ab:40:7b:59:26:40:25:
                    62:d5:61:2f:c1:90:24:22:54:c2:37:25:0b:01:44:
                    01:42:f4:a7:03:ee:ca:6f:41:3a:d4:27:61:ae:94:
                    64:23:1b:8c:4c:51:58:d3:20:bf:7b:20:f7:0d:09:
                    88:9a:96:b8:91:06:35:f1:d2:23:8e:e7:85:5e:84:
                    f1:62:10:3d:26:37:63:97:fa:b9:da:a8:b2:4a:8e:
                    08:c1:1d:4b:e3:75:9e:a2:13:f3:f8:c8:a9:ce:77:
                    17:89:80:d8:e4:e6:0c:51:5a:de:52:7b:95:84:cf:
                    08:fc:40:ee:f5:42:8b:44:83:05:f7:03:68:50:85:
                    03:8b
                Exponent: 65537 (0x10001)
        X509v3 extensions:
            X509v3 Basic Constraints: 
                CA:FALSE
            X509v3 Subject Key Identifier: 
                DE:8F:07:F7:34:4E:B3:A9:AE:9F:1F:33:7A:86:4C:FD:8B:65:E6:10
            X509v3 Authority Key Identifier: 
                keyid:C6:A9:C5:1E:D6:9D:1E:86:75:C6:DA:C4:40:16:F0:85:D4:D3:ED:56

    Signature Algorithm: sha256WithRSAEncryption
         78:f3:ad:1f:ca:db:23:6d:b0:57:aa:74:31:c0:e1:8f:6e:02:
         be:f5:cb:86:4c:48:44:f4:a7:d7:46:fa:21:f9:16:5b:24:da:
         5c:96:a6:ce:ab:02:f9:19:fd:4e:e1:6a:75:85:f3:57:ca:1f:
         0b:3b:82:0c:13:8d:7e:62:f8:07:c2:08:23:cf:d4:d5:a0:cc:
         e3:8d:b8:09:88:e3:cd:e1:c7:16:e4:3f:87:7d:e7:53:90:56:
         ad:53:8e:3d:01:b0:d4:2d:23:08:df:86:f2:b9:0b:f0:c6:9d:
         27:da:ef:ae:51:1e:51:79:37:36:07:d6:6e:f6:64:29:65:eb:
         e0:04:8b:7f:85:d8:e3:c9:a5:8d:1d:4c:d5:bd:e8:e3:88:0e:
         8b:6d:ee:3b:ba:6c:6e:24:3c:1c:21:e1:fc:49:48:a9:24:ad:
         d5:bc:9f:19:be:af:7e:97:22:87:62:71:79:b5:b2:22:d4:2b:
         4e:0f:bd:82:41:3c:81:21:c1:12:a7:47:93:32:e9:51:d4:33:
         d6:c6:b6:1f:55:b0:db:f1:33:a4:48:d9:7e:21:3c:e8:69:65:
         de:0a:06:f4:05:6c:38:31:2c:82:26:7a:cc:66:3f:98:dc:f3:
         21:dc:58:2d:5d:62:07:e7:f0:a4:77:b6:d7:a9:b0:35:22:96:
         b6:b9:c4:e5
-----BEGIN CERTIFICATE-----
MIIDZjCCAk6gAwIBAgIBATANBgkqhkiG9w0BAQsFADBXMQswCQYDVQQGEwJVUzEO
MAwGA1UECAwFVW5zZXQxDjAMBgNVBAcMBVVuc2V0MQ4wDAYDVQQKDAVVbnNldDEY
MBYGA1UEAwwPd3d3LmV4YW1wbGUuY29tMB4XDTE2MDcyNzA5MTMxNVoXDTI2MDcy
NTA5MTMxNVowRzELMAkGA1UEBhMCVVMxDjAMBgNVBAgMBVVuc2V0MQ4wDAYDVQQK
DAVVbnNldDEYMBYGA1UEAwwPd3d3LmV4YW1wbGUuY29tMIIBIjANBgkqhkiG9w0B
AQEFAAOCAQ8AMIIBCgKCAQEAu93+aHKef+8ZoWCcMTF2uSVsIwIItJ+ovXUqopHB
ToJagwx2o5lDRxcadhWFDdgiO2ZCL8NdTC3sbar3GoFQjm4eKlSjeNWiPGGiLrP3
6d4qV4d5B5WMjB5b6QNgSkfwNXs68hdHnBo1sgeXSS6XIYB6I0IX9Csdg4zVDyHM
V6tAe1kmQCVi1WEvwZAkIlTCNyULAUQBQvSnA+7Kb0E61CdhrpRkIxuMTFFY0yC/
eyD3DQmImpa4kQY18dIjjueFXoTxYhA9Jjdjl/q52qiySo4IwR1L43WeohPz+Mip
zncXiYDY5OYMUVreUnuVhM8I/EDu9UKLRIMF9wNoUIUDiwIDAQABo00wSzAJBgNV
HRMEAjAAMB0GA1UdDgQWBBTejwf3NE6zqa6fHzN6hkz9i2XmEDAfBgNVHSMEGDAW
gBTGqcUe1p0ehnXG2sRAFvCF1NPtVjANBgkqhkiG9w0BAQsFAAOCAQEAePOtH8rb
I22wV6p0McDhj24CvvXLhkxIRPSn10b6IfkWWyTaXJamzqsC+Rn9TuFqdYXzV8of
CzuCDBONfmL4B8III8/U1aDM4424CYjjzeHHFuQ/h33nU5BWrVOOPQGw1C0jCN+G
8rkL8MadJ9rvrlEeUXk3NgfWbvZkKWXr4ASLf4XY48mljR1M1b3o44gOi23uO7ps
biQ8HCHh/ElIqSSt1byfGb6vfpcih2JxebWyItQrTg+9gkE8gSHBEqdHkzLpUdQz
1sa2H1Ww2/EzpEjZfiE86Gll3goG9AVsODEsgiZ6zGY/mNzzIdxYLV1iB+fwpHe2
16mwNSKWtrnE5Q==
-----END CERTIFICATE-----
