Certificate:
    Data:
        Version: 3 (0x2)
        Serial Number: 1 (0x1)
    Signature Algorithm: sha256WithRSAEncryption
        Issuer: C=US, ST=Unset, L=Unset, O=Unset, CN=www.example.com
        Validity
            Not Before: Aug 10 10:47:30 2016 GMT
            Not After : Aug  8 10:47:30 2026 GMT
        Subject: C=US, ST=Unset, O=Unset, CN=www.example.com
        Subject Public Key Info:
            Public Key Algorithm: rsaEncryption
                Public-Key: (2048 bit)
                Modulus:
                    00:de:37:c6:7c:b7:5f:c8:cf:9b:74:a7:b6:12:c6:
                    87:e9:22:21:dd:73:be:e9:83:f1:f8:bf:fa:e2:f1:
                    a7:5f:38:37:9d:50:02:64:73:ed:c4:a5:25:8f:3a:
                    b8:cf:ce:40:fd:d6:37:ea:ae:c0:df:d8:60:a7:76:
                    9d:f4:77:21:b2:63:15:5f:52:47:25:c3:56:4c:4f:
                    d6:1c:73:60:7a:f7:ad:d4:75:a6:bc:29:3b:b0:b7:
                    30:06:63:aa:9a:1e:80:3f:4f:97:52:1d:ac:c7:67:
                    b4:36:1d:9a:62:cb:2a:91:15:13:0c:c9:c4:20:95:
                    b3:d4:75:6e:73:6d:34:80:25:84:e0:0d:bd:21:ca:
                    68:3a:b9:dc:7d:f4:59:d3:5a:10:27:6c:44:ff:2a:
                    3c:bd:b2:3f:6f:d2:64:c1:b8:01:ca:95:af:78:56:
                    ac:ef:a8:a4:5f:5d:cb:2b:c9:71:20:ef:d6:1d:3b:
                    cb:f1:18:e7:0b:82:fb:3d:b0:4f:60:33:ad:89:55:
                    65:a5:2a:8d:18:13:5c:f7:df:86:07:6a:20:26:34:
                    5d:34:83:87:18:98:f5:1c:a0:64:54:9e:13:32:f8:
                    41:46:01:d2:eb:ea:aa:05:a4:99:47:07:04:45:98:
                    20:4c:30:96:00:c4:46:2f:07:18:20:47:ea:50:d4:
                    2e:e7
                Exponent: 65537 (0x10001)
        X509v3 extensions:
            X509v3 Basic Constraints: 
                CA:FALSE
            X509v3 Subject Key Identifier: 
                02:C8:CC:BC:79:14:A0:37:E8:03:CB:BC:DC:37:49:AA:18:86:DE:79
            X509v3 Authority Key Identifier: 
                keyid:53:82:CE:CE:61:03:7A:8A:03:73:41:68:D3:93:7F:97:4A:1F:E9:09

    Signature Algorithm: sha256WithRSAEncryption
         70:90:e4:b5:9b:3d:17:18:14:44:6d:1f:db:b5:1e:ee:5e:ae:
         86:64:c3:32:4a:c0:25:53:f7:33:9b:f8:9b:8f:ce:92:09:58:
         ef:d0:c7:d6:f8:67:d6:4c:90:d9:e7:39:66:7d:d0:fc:a7:ee:
         b3:03:ea:ad:4c:61:10:47:33:70:e6:48:a6:0c:43:02:52:1d:
         08:bc:61:76:4d:31:88:42:90:25:9c:cb:4d:a7:14:d7:75:a2:
         d9:23:e8:d1:c7:d9:da:42:97:57:e8:35:1d:11:c0:d8:ad:97:
         e9:da:2b:38:62:4b:1a:d8:b5:61:cc:89:e8:cf:3e:6b:0d:a5:
         04:12:83:b7:61:61:d7:f6:a9:64:32:48:c2:59:c3:52:5f:2e:
         b6:bc:00:41:b8:f3:3a:c3:c4:cd:ac:93:58:1e:e2:14:40:62:
         75:95:9b:05:fe:b5:28:49:00:a8:81:2b:b3:0c:5b:34:8c:e0:
         44:78:5d:ab:68:ce:67:87:3d:eb:a3:c8:95:d7:b7:de:d7:d6:
         26:86:af:f8:30:be:dc:c2:33:99:52:19:00:7e:bc:c9:61:25:
         f2:da:64:32:72:0c:b4:67:5e:c4:22:8c:ac:1c:d5:ac:79:37:
         6c:18:f5:b9:15:84:c6:b3:e7:aa:7b:56:42:37:33:a5:41:70:
         5b:2a:b5:09
-----BEGIN CERTIFICATE-----
MIIDZjCCAk6gAwIBAgIBATANBgkqhkiG9w0BAQsFADBXMQswCQYDVQQGEwJVUzEO
MAwGA1UECAwFVW5zZXQxDjAMBgNVBAcMBVVuc2V0MQ4wDAYDVQQKDAVVbnNldDEY
MBYGA1UEAwwPd3d3LmV4YW1wbGUuY29tMB4XDTE2MDgxMDEwNDczMFoXDTI2MDgw
ODEwNDczMFowRzELMAkGA1UEBhMCVVMxDjAMBgNVBAgMBVVuc2V0MQ4wDAYDVQQK
DAVVbnNldDEYMBYGA1UEAwwPd3d3LmV4YW1wbGUuY29tMIIBIjANBgkqhkiG9w0B
AQEFAAOCAQ8AMIIBCgKCAQEA3jfGfLdfyM+bdKe2EsaH6SIh3XO+6YPx+L/64vGn
Xzg3nVACZHPtxKUljzq4z85A/dY36q7A39hgp3ad9HchsmMVX1JHJcNWTE/WHHNg
evet1HWmvCk7sLcwBmOqmh6AP0+XUh2sx2e0Nh2aYssqkRUTDMnEIJWz1HVuc200
gCWE4A29IcpoOrncffRZ01oQJ2xE/yo8vbI/b9JkwbgBypWveFas76ikX13LK8lx
IO/WHTvL8RjnC4L7PbBPYDOtiVVlpSqNGBNc99+GB2ogJjRdNIOHGJj1HKBkVJ4T
MvhBRgHS6+qqBaSZRwcERZggTDCWAMRGLwcYIEfqUNQu5wIDAQABo00wSzAJBgNV
HRMEAjAAMB0GA1UdDgQWBBQCyMy8eRSgN+gDy7zcN0mqGIbeeTAfBgNVHSMEGDAW
gBRTgs7OYQN6igNzQWjTk3+XSh/pCTANBgkqhkiG9w0BAQsFAAOCAQEAcJDktZs9
FxgURG0f27Ue7l6uhmTDMkrAJVP3M5v4m4/OkglY79DH1vhn1kyQ2ec5Zn3Q/Kfu
swPqrUxhEEczcOZIpgxDAlIdCLxhdk0xiEKQJZzLTacU13Wi2SPo0cfZ2kKXV+g1
HRHA2K2X6dorOGJLGti1YcyJ6M8+aw2lBBKDt2Fh1/apZDJIwlnDUl8utrwAQbjz
OsPEzayTWB7iFEBidZWbBf61KEkAqIErswxbNIzgRHhdq2jOZ4c966PIlde33tfW
Joav+DC+3MIzmVIZAH68yWEl8tpkMnIMtGdexCKMrBzVrHk3bBj1uRWExrPnqntW
QjczpUFwWyq1CQ==
-----END CERTIFICATE-----
